target datalayout = "e-m:e-p270:32:32-p271:32:32-p272:64:64-i64:64-i128:128-f80:128-n8:16:32:64-S128"
target triple = "x86_64-pc-linux-gnu"

%struct.asdl_pattern_seq = type { i64, ptr, [1 x ptr] }

; Function Attrs: nounwind uwtable
define internal i32 @validate_patterns(ptr noundef %0, ptr noundef %1, i32 noundef %2) #0 {
  %4 = alloca i32, align 4
  %5 = alloca ptr, align 8
  %6 = alloca ptr, align 8
  %7 = alloca i32, align 4
  %8 = alloca i64, align 8
  %9 = alloca i32, align 4
  %10 = alloca ptr, align 8
  store ptr %0, ptr %5, align 8, !tbaa !31
  store ptr %1, ptr %6, align 8, !tbaa !33
  store i32 %2, ptr %7, align 4, !tbaa !9
  call void @llvm.lifetime.start.p0(i64 8, ptr %8) #6
  store i64 0, ptr %8, align 8, !tbaa !34
  br label %11

11:                                               ; preds = %40, %3
  %12 = load i64, ptr %8, align 8, !tbaa !34
  %13 = load ptr, ptr %6, align 8, !tbaa !33
  %14 = icmp eq ptr %13, null
  br i1 %14, label %15, label %16

15:                                               ; preds = %11
  br label %20

16:                                               ; preds = %11
  %17 = load ptr, ptr %6, align 8, !tbaa !33
  %18 = getelementptr inbounds nuw %struct.asdl_pattern_seq, ptr %17, i32 0, i32 0
  %19 = load i64, ptr %18, align 8, !tbaa !35
  br label %20

20:                                               ; preds = %16, %15
  %21 = phi i64 [ 0, %15 ], [ %19, %16 ]
  %22 = icmp slt i64 %12, %21
  br i1 %22, label %24, label %23

23:                                               ; preds = %20
  store i32 2, ptr %9, align 4
  br label %43

24:                                               ; preds = %20
  call void @llvm.lifetime.start.p0(i64 8, ptr %10) #6
  %25 = load ptr, ptr %6, align 8, !tbaa !33
  %26 = getelementptr inbounds nuw %struct.asdl_pattern_seq, ptr %25, i32 0, i32 2
  %27 = load i64, ptr %8, align 8, !tbaa !34
  %28 = getelementptr [1 x ptr], ptr %26, i64 0, i64 %27
  %29 = load ptr, ptr %28, align 8, !tbaa !107
  store ptr %29, ptr %10, align 8, !tbaa !107
  %30 = load ptr, ptr %5, align 8, !tbaa !31
  %31 = load ptr, ptr %10, align 8, !tbaa !107
  %32 = load i32, ptr %7, align 4, !tbaa !9
  %33 = call i32 @validate_pattern(ptr noundef %30, ptr noundef %31, i32 noundef %32)
  %34 = icmp ne i32 %33, 0
  br i1 %34, label %36, label %35

35:                                               ; preds = %24
  store i32 0, ptr %4, align 4
  store i32 1, ptr %9, align 4
  br label %37

36:                                               ; preds = %24
  store i32 0, ptr %9, align 4
  br label %37

37:                                               ; preds = %36, %35
  call void @llvm.lifetime.end.p0(i64 8, ptr %10) #6
  %38 = load i32, ptr %9, align 4
  switch i32 %38, label %43 [
    i32 0, label %39
  ]

39:                                               ; preds = %37
  br label %40

40:                                               ; preds = %39
  %41 = load i64, ptr %8, align 8, !tbaa !34
  %42 = add i64 %41, 1
  store i64 %42, ptr %8, align 8, !tbaa !34
  br label %11, !llvm.loop !129

43:                                               ; preds = %37, %23
  call void @llvm.lifetime.end.p0(i64 8, ptr %8) #6
  %44 = load i32, ptr %9, align 4
  switch i32 %44, label %48 [
    i32 2, label %45
    i32 1, label %46
  ]

45:                                               ; preds = %43
  store i32 1, ptr %4, align 4
  br label %46

46:                                               ; preds = %45, %43
  %47 = load i32, ptr %4, align 4
  ret i32 %47

48:                                               ; preds = %43
  unreachable
}