; Function Attrs: nounwind uwtable
define internal fastcc noundef range(i32 0, 2) i32 @validate_patterns(ptr noundef nonnull captures(none) %0, ptr noundef readonly %1, i32 noundef range(i32 0, 2) %2) unnamed_addr #0 {
  %4 = getelementptr inbounds nuw i8, ptr %1, i64 16
  %5 = icmp eq ptr %1, null
  br i1 %5, label %.split16.us, label %.split

.split:                                           ; preds = %3, %7
  %.013 = phi i64 [ %11, %7 ], [ 0, %3 ]
  %6 = load i64, ptr %1, align 8, !tbaa !27
  %.not.not17 = icmp slt i64 %.013, %6
  br i1 %.not.not17, label %7, label %.split16.us

7:                                                ; preds = %.split
  %8 = getelementptr [1 x ptr], ptr %4, i64 0, i64 %.013
  %9 = load ptr, ptr %8, align 8, !tbaa !120
  %10 = tail call fastcc i32 @validate_pattern(ptr noundef %0, ptr noundef %9, i32 noundef %2)
  %.not.not = icmp eq i32 %10, 0
  %11 = add nuw nsw i64 %.013, 1
  br i1 %.not.not, label %.split16.us, label %.split, !llvm.loop !121

.split16.us:                                      ; preds = %7, %.split, %3
  %.us-phi = phi i32 [ 1, %3 ], [ 1, %.split ], [ 0, %7 ]
  ret i32 %.us-phi
}